target datalayout = "e-m:e-p270:32:32-p271:32:32-p272:64:64-i64:64-i128:128-f80:128-n8:16:32:64-S128"
target triple = "x86_64-pc-linux-gnu"

; Function Attrs: nounwind uwtable
define void @Gia_ManAutomTranspose64(ptr noundef %0) #0 {
  %2 = alloca ptr, align 8
  %3 = alloca i32, align 4
  %4 = alloca i32, align 4
  %5 = alloca i64, align 8
  %6 = alloca i64, align 8
  store ptr %0, ptr %2, align 8
  store i64 4294967295, ptr %6, align 8
  store i32 32, ptr %3, align 4
  br label %7

7:                                                ; preds = %71, %1
  %8 = load i32, ptr %3, align 4
  %9 = icmp ne i32 %8, 0
  br i1 %9, label %10, label %80

10:                                               ; preds = %7
  store i32 0, ptr %4, align 4
  br label %11

11:                                               ; preds = %62, %10
  %12 = load i32, ptr %4, align 4
  %13 = icmp slt i32 %12, 64
  br i1 %13, label %14, label %70

14:                                               ; preds = %11
  %15 = load ptr, ptr %2, align 8
  %16 = load i32, ptr %4, align 4
  %17 = sext i32 %16 to i64
  %18 = getelementptr inbounds i64, ptr %15, i64 %17
  %19 = load i64, ptr %18, align 8
  %20 = load ptr, ptr %2, align 8
  %21 = load i32, ptr %4, align 4
  %22 = load i32, ptr %3, align 4
  %23 = add nsw i32 %21, %22
  %24 = sext i32 %23 to i64
  %25 = getelementptr inbounds i64, ptr %20, i64 %24
  %26 = load i64, ptr %25, align 8
  %27 = load i32, ptr %3, align 4
  %28 = zext i32 %27 to i64
  %29 = lshr i64 %26, %28
  %30 = xor i64 %19, %29
  %31 = load i64, ptr %6, align 8
  %32 = and i64 %30, %31
  store i64 %32, ptr %5, align 8
  %33 = load ptr, ptr %2, align 8
  %34 = load i32, ptr %4, align 4
  %35 = sext i32 %34 to i64
  %36 = getelementptr inbounds i64, ptr %33, i64 %35
  %37 = load i64, ptr %36, align 8
  %38 = load i64, ptr %5, align 8
  %39 = xor i64 %37, %38
  %40 = load ptr, ptr %2, align 8
  %41 = load i32, ptr %4, align 4
  %42 = sext i32 %41 to i64
  %43 = getelementptr inbounds i64, ptr %40, i64 %42
  store i64 %39, ptr %43, align 8
  %44 = load ptr, ptr %2, align 8
  %45 = load i32, ptr %4, align 4
  %46 = load i32, ptr %3, align 4
  %47 = add nsw i32 %45, %46
  %48 = sext i32 %47 to i64
  %49 = getelementptr inbounds i64, ptr %44, i64 %48
  %50 = load i64, ptr %49, align 8
  %51 = load i64, ptr %5, align 8
  %52 = load i32, ptr %3, align 4
  %53 = zext i32 %52 to i64
  %54 = shl i64 %51, %53
  %55 = xor i64 %50, %54
  %56 = load ptr, ptr %2, align 8
  %57 = load i32, ptr %4, align 4
  %58 = load i32, ptr %3, align 4
  %59 = add nsw i32 %57, %58
  %60 = sext i32 %59 to i64
  %61 = getelementptr inbounds i64, ptr %56, i64 %60
  store i64 %55, ptr %61, align 8
  br label %62

62:                                               ; preds = %14
  %63 = load i32, ptr %4, align 4
  %64 = load i32, ptr %3, align 4
  %65 = add nsw i32 %63, %64
  %66 = add nsw i32 %65, 1
  %67 = load i32, ptr %3, align 4
  %68 = xor i32 %67, -1
  %69 = and i32 %66, %68
  store i32 %69, ptr %4, align 4
  br label %11, !llvm.loop !27

70:                                               ; preds = %11
  br label %71

71:                                               ; preds = %70
  %72 = load i32, ptr %3, align 4
  %73 = ashr i32 %72, 1
  store i32 %73, ptr %3, align 4
  %74 = load i64, ptr %6, align 8
  %75 = load i64, ptr %6, align 8
  %76 = load i32, ptr %3, align 4
  %77 = zext i32 %76 to i64
  %78 = shl i64 %75, %77
  %79 = xor i64 %74, %78
  store i64 %79, ptr %6, align 8
  br label %7, !llvm.loop !28

80:                                               ; preds = %7
  ret void
}