; Function Attrs: nofree norecurse nosync nounwind memory(argmem: readwrite) uwtable
define void @Gia_ManAutomTranspose64(ptr noundef captures(none) %0) local_unnamed_addr #8 {
  br label %.preheader

.preheader:                                       ; preds = %1, %20
  %.032 = phi i64 [ 4294967295, %1 ], [ %24, %20 ]
  %.02831 = phi i32 [ 32, %1 ], [ %21, %20 ]
  %2 = zext nneg i32 %.02831 to i64
  %invariant.op = add nuw nsw i32 %.02831, 1
  %3 = xor i32 %.02831, -1
  br label %4

4:                                                ; preds = %.preheader, %4
  %.02930 = phi i32 [ 0, %.preheader ], [ %18, %4 ]
  %5 = sext i32 %.02930 to i64
  %6 = getelementptr inbounds i64, ptr %0, i64 %5
  %7 = load i64, ptr %6, align 8
  %8 = add nsw i32 %.02930, %.02831
  %9 = sext i32 %8 to i64
  %10 = getelementptr inbounds i64, ptr %0, i64 %9
  %11 = load i64, ptr %10, align 8
  %12 = lshr i64 %11, %2
  %13 = xor i64 %12, %7
  %14 = and i64 %13, %.032
  %15 = xor i64 %14, %7
  store i64 %15, ptr %6, align 8
  %16 = shl i64 %14, %2
  %17 = xor i64 %16, %11
  store i64 %17, ptr %10, align 8
  %.reass = add i32 %.02930, %invariant.op
  %18 = and i32 %.reass, %3
  %19 = icmp slt i32 %18, 64
  br i1 %19, label %4, label %20, !llvm.loop !25

20:                                               ; preds = %4
  %21 = lshr i32 %.02831, 1
  %22 = zext nneg i32 %21 to i64
  %23 = shl i64 %.032, %22
  %24 = xor i64 %23, %.032
  %.not = icmp samesign ult i32 %.02831, 2
  br i1 %.not, label %25, label %.preheader, !llvm.loop !26

25:                                               ; preds = %20
  ret void
}